; Function Attrs: mustprogress uwtable
define internal noundef ptr @_ZNK7testing8internal30ValuesInIteratorRangeGeneratorIN12_GLOBAL__N_111PatternInfoEE8Iterator7CurrentEv(ptr noundef nonnull align 8 captures(none) dereferenceable(32) %0) unnamed_addr #6 align 2 personality ptr @__gxx_personality_v0 {
  %2 = getelementptr inbounds nuw i8, ptr %0, i64 24
  %.val = load ptr, ptr %2, align 8
  %3 = icmp eq ptr %.val, null
  br i1 %3, label %4, label %_ZN7testing8internal10scoped_ptrIKN12_GLOBAL__N_111PatternInfoEE5resetEPS4_.exit

4:                                                ; preds = %1
  %5 = tail call noalias noundef nonnull dereferenceable(80) ptr @_Znwm(i64 noundef 80) #31
  %6 = getelementptr inbounds nuw i8, ptr %0, i64 16
  %.val3 = load ptr, ptr %6, align 8
  invoke fastcc void @_ZN12_GLOBAL__N_111PatternInfoC2ERKS0_(ptr noundef nonnull align 8 dereferenceable(80) %5, ptr noundef nonnull align 8 dereferenceable(80) %.val3)
          to label %7 unwind label %29

7:                                                ; preds = %4
  %8 = load ptr, ptr %2, align 8
  %.not.i = icmp eq ptr %5, %8
  br i1 %.not.i, label %_ZN7testing8internal10scoped_ptrIKN12_GLOBAL__N_111PatternInfoEE5resetEPS4_.exit, label %9

9:                                                ; preds = %7
  %10 = tail call noundef zeroext i1 @_ZN7testing8internal6IsTrueEb(i1 noundef zeroext true)
  br i1 %10, label %11, label %28

11:                                               ; preds = %9
  %12 = load ptr, ptr %2, align 8
  %13 = icmp eq ptr %12, null
  br i1 %13, label %28, label %14

14:                                               ; preds = %11
  %15 = getelementptr inbounds nuw i8, ptr %12, i64 40
  %16 = load ptr, ptr %15, align 8
  %17 = getelementptr inbounds nuw i8, ptr %12, i64 56
  %18 = icmp eq ptr %16, %17
  br i1 %18, label %_ZNKSt7__cxx1112basic_stringIcSt11char_traitsIcESaIcEE11_M_is_localEv.exit.thread.i.i.i.i, label %_ZNKSt7__cxx1112basic_stringIcSt11char_traitsIcESaIcEE11_M_is_localEv.exit.i.i.i.i

_ZNKSt7__cxx1112basic_stringIcSt11char_traitsIcESaIcEE11_M_is_localEv.exit.thread.i.i.i.i: ; preds = %14
  %19 = getelementptr inbounds nuw i8, ptr %12, i64 48
  %20 = load i64, ptr %19, align 8
  %21 = icmp ult i64 %20, 16
  tail call void @llvm.assume(i1 %21)
  br label %_ZNSt7__cxx1112basic_stringIcSt11char_traitsIcESaIcEED2Ev.exit.i.i

_ZNKSt7__cxx1112basic_stringIcSt11char_traitsIcESaIcEE11_M_is_localEv.exit.i.i.i.i: ; preds = %14
  tail call void @_ZdlPv(ptr noundef %16) #27
  br label %_ZNSt7__cxx1112basic_stringIcSt11char_traitsIcESaIcEED2Ev.exit.i.i

_ZNSt7__cxx1112basic_stringIcSt11char_traitsIcESaIcEED2Ev.exit.i.i: ; preds = %_ZNKSt7__cxx1112basic_stringIcSt11char_traitsIcESaIcEE11_M_is_localEv.exit.i.i.i.i, %_ZNKSt7__cxx1112basic_stringIcSt11char_traitsIcESaIcEE11_M_is_localEv.exit.thread.i.i.i.i
  %22 = load ptr, ptr %12, align 8
  %23 = getelementptr inbounds nuw i8, ptr %12, i64 16
  %24 = icmp eq ptr %22, %23
  br i1 %24, label %_ZNKSt7__cxx1112basic_stringIcSt11char_traitsIcESaIcEE11_M_is_localEv.exit.thread.i.i2.i.i, label %_ZNKSt7__cxx1112basic_stringIcSt11char_traitsIcESaIcEE11_M_is_localEv.exit.i.i1.i.i

_ZNKSt7__cxx1112basic_stringIcSt11char_traitsIcESaIcEE11_M_is_localEv.exit.thread.i.i2.i.i: ; preds = %_ZNSt7__cxx1112basic_stringIcSt11char_traitsIcESaIcEED2Ev.exit.i.i
  %25 = getelementptr inbounds nuw i8, ptr %12, i64 8
  %26 = load i64, ptr %25, align 8
  %27 = icmp ult i64 %26, 16
  tail call void @llvm.assume(i1 %27)
  br label %_ZN12_GLOBAL__N_111PatternInfoD2Ev.exit.i

_ZNKSt7__cxx1112basic_stringIcSt11char_traitsIcESaIcEE11_M_is_localEv.exit.i.i1.i.i: ; preds = %_ZNSt7__cxx1112basic_stringIcSt11char_traitsIcESaIcEED2Ev.exit.i.i
  tail call void @_ZdlPv(ptr noundef %22) #27
  br label %_ZN12_GLOBAL__N_111PatternInfoD2Ev.exit.i

_ZN12_GLOBAL__N_111PatternInfoD2Ev.exit.i:        ; preds = %_ZNKSt7__cxx1112basic_stringIcSt11char_traitsIcESaIcEE11_M_is_localEv.exit.i.i1.i.i, %_ZNKSt7__cxx1112basic_stringIcSt11char_traitsIcESaIcEE11_M_is_localEv.exit.thread.i.i2.i.i
  tail call void @_ZdlPv(ptr noundef nonnull %12) #27
  br label %28

28:                                               ; preds = %_ZN12_GLOBAL__N_111PatternInfoD2Ev.exit.i, %11, %9
  store ptr %5, ptr %2, align 8
  br label %_ZN7testing8internal10scoped_ptrIKN12_GLOBAL__N_111PatternInfoEE5resetEPS4_.exit

29:                                               ; preds = %4
  %30 = landingpad { ptr, i32 }
          cleanup
  tail call void @_ZdlPv(ptr noundef nonnull %5) #27
  resume { ptr, i32 } %30

_ZN7testing8internal10scoped_ptrIKN12_GLOBAL__N_111PatternInfoEE5resetEPS4_.exit: ; preds = %28, %7, %1
  %.val2 = phi ptr [ %5, %28 ], [ %8, %7 ], [ %.val, %1 ]
  ret ptr %.val2
}